; ModuleID = '37/1887.c'
source_filename = "37/1887.c"
target datalayout = "e-m:e-p270:32:32-p271:32:32-p272:64:64-i64:64-f80:128-n8:16:32:64-S128"
target triple = "x86_64-pc-linux-gnu"

@.str = private unnamed_addr constant [3 x i8] c"%d\00", align 1
@.str.1 = private unnamed_addr constant [3 x i8] c"%s\00", align 1
@.str.2 = private unnamed_addr constant [4 x i8] c"%c\0A\00", align 1
@.str.3 = private unnamed_addr constant [4 x i8] c"no\0A\00", align 1

; Function Attrs: noinline nounwind uwtable
define dso_local i32 @main() #0 {
  %1 = alloca i32, align 4
  %2 = alloca i32, align 4
  %3 = alloca i32, align 4
  %4 = alloca i32, align 4
  %5 = alloca i32, align 4
  %6 = alloca [100001 x i32], align 16
  %7 = alloca [100001 x i8], align 16
  %8 = alloca i32, align 4
  store i32 0, i32* %1, align 4
  %9 = call i32 (i8*, ...) @__isoc99_scanf(i8* getelementptr inbounds ([3 x i8], [3 x i8]* @.str, i64 0, i64 0), i32* %2)
  store i32 0, i32* %3, align 4
  br label %10

10:                                               ; preds = %105, %0
  %11 = load i32, i32* %3, align 4
  %12 = load i32, i32* %2, align 4
  %13 = icmp slt i32 %11, %12
  br i1 %13, label %14, label %108

14:                                               ; preds = %10
  store i32 0, i32* %8, align 4
  store i32 0, i32* %4, align 4
  br label %15

15:                                               ; preds = %25, %14
  %16 = load i32, i32* %4, align 4
  %17 = icmp slt i32 %16, 100001
  br i1 %17, label %18, label %28

18:                                               ; preds = %15
  %19 = load i32, i32* %4, align 4
  %20 = sext i32 %19 to i64
  %21 = getelementptr inbounds [100001 x i8], [100001 x i8]* %7, i64 0, i64 %20
  store i8 0, i8* %21, align 1
  %22 = load i32, i32* %4, align 4
  %23 = sext i32 %22 to i64
  %24 = getelementptr inbounds [100001 x i32], [100001 x i32]* %6, i64 0, i64 %23
  store i32 1, i32* %24, align 4
  br label %25

25:                                               ; preds = %18
  %26 = load i32, i32* %4, align 4
  %27 = add nsw i32 %26, 1
  store i32 %27, i32* %4, align 4
  br label %15

28:                                               ; preds = %15
  %29 = getelementptr inbounds [100001 x i8], [100001 x i8]* %7, i64 0, i64 0
  %30 = call i32 (i8*, ...) @__isoc99_scanf(i8* getelementptr inbounds ([3 x i8], [3 x i8]* @.str.1, i64 0, i64 0), i8* %29)
  store i32 0, i32* %4, align 4
  br label %31

31:                                               ; preds = %75, %28
  %32 = load i32, i32* %4, align 4
  %33 = icmp slt i32 %32, 100001
  br i1 %33, label %34, label %78

34:                                               ; preds = %31
  %35 = load i32, i32* %4, align 4
  %36 = sext i32 %35 to i64
  %37 = getelementptr inbounds [100001 x i32], [100001 x i32]* %6, i64 0, i64 %36
  %38 = load i32, i32* %37, align 4
  %39 = icmp eq i32 %38, 1
  br i1 %39, label %40, label %74

40:                                               ; preds = %34
  %41 = load i32, i32* %4, align 4
  %42 = add nsw i32 %41, 1
  store i32 %42, i32* %5, align 4
  br label %43

43:                                               ; preds = %70, %40
  %44 = load i32, i32* %5, align 4
  %45 = icmp slt i32 %44, 100001
  br i1 %45, label %46, label %73

46:                                               ; preds = %43
  %47 = load i32, i32* %4, align 4
  %48 = sext i32 %47 to i64
  %49 = getelementptr inbounds [100001 x i8], [100001 x i8]* %7, i64 0, i64 %48
  %50 = load i8, i8* %49, align 1
  %51 = sext i8 %50 to i32
  %52 = load i32, i32* %5, align 4
  %53 = sext i32 %52 to i64
  %54 = getelementptr inbounds [100001 x i8], [100001 x i8]* %7, i64 0, i64 %53
  %55 = load i8, i8* %54, align 1
  %56 = sext i8 %55 to i32
  %57 = icmp eq i32 %51, %56
  br i1 %57, label %58, label %69

58:                                               ; preds = %46
  %59 = load i32, i32* %4, align 4
  %60 = sext i32 %59 to i64
  %61 = getelementptr inbounds [100001 x i32], [100001 x i32]* %6, i64 0, i64 %60
  %62 = load i32, i32* %61, align 4
  %63 = add nsw i32 %62, 1
  store i32 %63, i32* %61, align 4
  %64 = load i32, i32* %5, align 4
  %65 = sext i32 %64 to i64
  %66 = getelementptr inbounds [100001 x i32], [100001 x i32]* %6, i64 0, i64 %65
  %67 = load i32, i32* %66, align 4
  %68 = add nsw i32 %67, 1
  store i32 %68, i32* %66, align 4
  br label %69

69:                                               ; preds = %58, %46
  br label %70

70:                                               ; preds = %69
  %71 = load i32, i32* %5, align 4
  %72 = add nsw i32 %71, 1
  store i32 %72, i32* %5, align 4
  br label %43

73:                                               ; preds = %43
  br label %74

74:                                               ; preds = %73, %34
  br label %75

75:                                               ; preds = %74
  %76 = load i32, i32* %4, align 4
  %77 = add nsw i32 %76, 1
  store i32 %77, i32* %4, align 4
  br label %31

78:                                               ; preds = %31
  store i32 0, i32* %4, align 4
  br label %79

79:                                               ; preds = %96, %78
  %80 = load i32, i32* %4, align 4
  %81 = icmp slt i32 %80, 100001
  br i1 %81, label %82, label %99

82:                                               ; preds = %79
  %83 = load i32, i32* %4, align 4
  %84 = sext i32 %83 to i64
  %85 = getelementptr inbounds [100001 x i32], [100001 x i32]* %6, i64 0, i64 %84
  %86 = load i32, i32* %85, align 4
  %87 = icmp eq i32 %86, 1
  br i1 %87, label %88, label %95

88:                                               ; preds = %82
  %89 = load i32, i32* %4, align 4
  %90 = sext i32 %89 to i64
  %91 = getelementptr inbounds [100001 x i8], [100001 x i8]* %7, i64 0, i64 %90
  %92 = load i8, i8* %91, align 1
  %93 = sext i8 %92 to i32
  %94 = call i32 (i8*, ...) @printf(i8* getelementptr inbounds ([4 x i8], [4 x i8]* @.str.2, i64 0, i64 0), i32 %93)
  store i32 1, i32* %8, align 4
  br label %99

95:                                               ; preds = %82
  br label %96

96:                                               ; preds = %95
  %97 = load i32, i32* %4, align 4
  %98 = add nsw i32 %97, 1
  store i32 %98, i32* %4, align 4
  br label %79

99:                                               ; preds = %88, %79
  %100 = load i32, i32* %8, align 4
  %101 = icmp eq i32 %100, 0
  br i1 %101, label %102, label %104

102:                                              ; preds = %99
  %103 = call i32 (i8*, ...) @printf(i8* getelementptr inbounds ([4 x i8], [4 x i8]* @.str.3, i64 0, i64 0))
  br label %104

104:                                              ; preds = %102, %99
  br label %105

105:                                              ; preds = %104
  %106 = load i32, i32* %3, align 4
  %107 = add nsw i32 %106, 1
  store i32 %107, i32* %3, align 4
  br label %10

108:                                              ; preds = %10
  %109 = load i32, i32* %1, align 4
  ret i32 %109
}

declare dso_local i32 @__isoc99_scanf(i8*, ...) #1

declare dso_local i32 @printf(i8*, ...) #1


!llvm.module.flags = !{!0}
!llvm.ident = !{!1}

!0 = !{i32 1, !"wchar_size", i32 4}
!1 = !{!"clang version 10.0.0-4ubuntu1 "}
